; Function Attrs: mustprogress uwtable
define hidden noundef ptr @_ZN11ast_manager6mk_appEiijPKP4expr(ptr noundef nonnull align 8 dereferenceable(976) %0, i32 noundef %1, i32 noundef %2, i32 noundef %3, ptr noundef %4) local_unnamed_addr #7 align 2 {
  %6 = getelementptr inbounds nuw i8, ptr %0, i64 704
  %7 = load ptr, ptr %6, align 8, !tbaa !33
  %8 = icmp eq ptr %7, null
  br i1 %8, label %_ZN11ast_manager6mk_appEiijPK9parameterjPKP4exprP4sort.exit, label %_ZNK6vectorIP11decl_pluginLb0EjE3getEjRKS1_.exit.i.i

_ZNK6vectorIP11decl_pluginLb0EjE3getEjRKS1_.exit.i.i: ; preds = %5
  %9 = getelementptr inbounds i8, ptr %7, i64 -4
  %10 = load i32, ptr %9, align 4, !tbaa !24
  %.not.i.i.i = icmp ult i32 %1, %10
  br i1 %.not.i.i.i, label %_ZNK11ast_manager10get_pluginEi.exit.i, label %_ZN11ast_manager6mk_appEiijPK9parameterjPKP4exprP4sort.exit

_ZNK11ast_manager10get_pluginEi.exit.i:           ; preds = %_ZNK6vectorIP11decl_pluginLb0EjE3getEjRKS1_.exit.i.i
  %11 = zext i32 %1 to i64
  %12 = getelementptr inbounds nuw ptr, ptr %7, i64 %11
  %.then.val.i.i = load ptr, ptr %12, align 8, !tbaa !37
  %.not.i5 = icmp eq ptr %.then.val.i.i, null
  br i1 %.not.i5, label %_ZN11ast_manager6mk_appEiijPK9parameterjPKP4exprP4sort.exit, label %_ZN11ast_manager12mk_func_declEiijPK9parameterjPKP4exprP4sort.exit

_ZN11ast_manager12mk_func_declEiijPK9parameterjPKP4exprP4sort.exit: ; preds = %_ZNK11ast_manager10get_pluginEi.exit.i
  %13 = load ptr, ptr %.then.val.i.i, align 8, !tbaa !39
  %14 = getelementptr inbounds nuw i8, ptr %13, i64 64
  %15 = load ptr, ptr %14, align 8
  %16 = tail call noundef ptr %15(ptr noundef nonnull align 8 dereferenceable(20) %.then.val.i.i, i32 noundef %2, i32 noundef 0, ptr noundef null, i32 noundef %3, ptr noundef %4, ptr noundef null)
  %.not.i = icmp eq ptr %16, null
  br i1 %.not.i, label %_ZN11ast_manager6mk_appEiijPK9parameterjPKP4exprP4sort.exit, label %17

17:                                               ; preds = %_ZN11ast_manager12mk_func_declEiijPK9parameterjPKP4exprP4sort.exit
  %18 = tail call noundef ptr @_ZN11ast_manager6mk_appEP9func_decljPKP4expr(ptr noundef nonnull align 8 dereferenceable(976) %0, ptr noundef nonnull %16, i32 noundef %3, ptr noundef %4)
  br label %_ZN11ast_manager6mk_appEiijPK9parameterjPKP4exprP4sort.exit

_ZN11ast_manager6mk_appEiijPK9parameterjPKP4exprP4sort.exit: ; preds = %5, %_ZNK6vectorIP11decl_pluginLb0EjE3getEjRKS1_.exit.i.i, %_ZNK11ast_manager10get_pluginEi.exit.i, %_ZN11ast_manager12mk_func_declEiijPK9parameterjPKP4exprP4sort.exit, %17
  %.0.i = phi ptr [ %18, %17 ], [ null, %_ZN11ast_manager12mk_func_declEiijPK9parameterjPKP4exprP4sort.exit ], [ null, %_ZNK11ast_manager10get_pluginEi.exit.i ], [ null, %_ZNK6vectorIP11decl_pluginLb0EjE3getEjRKS1_.exit.i.i ], [ null, %5 ]
  ret ptr %.0.i
}